target datalayout = "e-m:e-p270:32:32-p271:32:32-p272:64:64-i64:64-i128:128-f80:128-n8:16:32:64-S128"
target triple = "x86_64-pc-linux-gnu"

%struct.Vector2 = type { float, float }

; Function Attrs: nounwind uwtable
define <2 x float> @Vector2Rotate(<2 x float> %0, float noundef %1) #9 {
  %3 = alloca %struct.Vector2, align 4
  %4 = alloca %struct.Vector2, align 4
  %5 = alloca float, align 4
  %6 = alloca float, align 4
  %7 = alloca float, align 4
  store <2 x float> %0, ptr %4, align 4
  store float %1, ptr %5, align 4
  call void @llvm.memset.p0.i64(ptr align 4 %3, i8 0, i64 8, i1 false)
  call void @llvm.lifetime.start.p0(i64 4, ptr %6) #16
  %8 = load float, ptr %5, align 4
  %9 = call float @cosf(float noundef %8) #16
  store float %9, ptr %6, align 4
  call void @llvm.lifetime.start.p0(i64 4, ptr %7) #16
  %10 = load float, ptr %5, align 4
  %11 = call float @sinf(float noundef %10) #16
  store float %11, ptr %7, align 4
  %12 = getelementptr inbounds nuw %struct.Vector2, ptr %4, i32 0, i32 0
  %13 = load float, ptr %12, align 4
  %14 = load float, ptr %6, align 4
  %15 = getelementptr inbounds nuw %struct.Vector2, ptr %4, i32 0, i32 1
  %16 = load float, ptr %15, align 4
  %17 = load float, ptr %7, align 4
  %18 = fmul float %16, %17
  %19 = fneg float %18
  %20 = call float @llvm.fmuladd.f32(float %13, float %14, float %19)
  %21 = getelementptr inbounds nuw %struct.Vector2, ptr %3, i32 0, i32 0
  store float %20, ptr %21, align 4
  %22 = getelementptr inbounds nuw %struct.Vector2, ptr %4, i32 0, i32 0
  %23 = load float, ptr %22, align 4
  %24 = load float, ptr %7, align 4
  %25 = getelementptr inbounds nuw %struct.Vector2, ptr %4, i32 0, i32 1
  %26 = load float, ptr %25, align 4
  %27 = load float, ptr %6, align 4
  %28 = fmul float %26, %27
  %29 = call float @llvm.fmuladd.f32(float %23, float %24, float %28)
  %30 = getelementptr inbounds nuw %struct.Vector2, ptr %3, i32 0, i32 1
  store float %29, ptr %30, align 4
  call void @llvm.lifetime.end.p0(i64 4, ptr %7) #16
  call void @llvm.lifetime.end.p0(i64 4, ptr %6) #16
  %31 = load <2 x float>, ptr %3, align 4
  ret <2 x float> %31
}