; Function Attrs: mustprogress nofree nounwind willreturn memory(write) uwtable
define <2 x float> @Vector2Rotate(<2 x float> %0, float noundef %1) local_unnamed_addr #18 {
  %3 = tail call float @cosf(float noundef %1) #56
  %4 = tail call float @sinf(float noundef %1) #56
  %.sroa.0.0.vec.extract = extractelement <2 x float> %0, i64 0
  %.sroa.0.4.vec.extract = extractelement <2 x float> %0, i64 1
  %5 = fneg float %4
  %6 = fmul float %.sroa.0.4.vec.extract, %5
  %7 = tail call float @llvm.fmuladd.f32(float %.sroa.0.0.vec.extract, float %3, float %6)
  %.sroa.010.0.vec.insert = insertelement <2 x float> poison, float %7, i64 0
  %8 = fmul float %.sroa.0.4.vec.extract, %3
  %9 = tail call float @llvm.fmuladd.f32(float %.sroa.0.0.vec.extract, float %4, float %8)
  %.sroa.010.4.vec.insert = insertelement <2 x float> %.sroa.010.0.vec.insert, float %9, i64 1
  ret <2 x float> %.sroa.010.4.vec.insert
}